target datalayout = "e-m:e-p270:32:32-p271:32:32-p272:64:64-i64:64-i128:128-f80:128-n8:16:32:64-S128"
target triple = "x86_64-unknown-linux-gnu"

%"struct.doctest::IContextScope" = type { ptr }
%"struct.doctest::detail::ContextScopeBase" = type <{ %"struct.doctest::IContextScope", i8, [7 x i8] }>

; Function Attrs: mustprogress nounwind uwtable
define linkonce_odr dso_local void @_ZN7doctest6detail16ContextScopeBaseD2Ev(ptr noundef nonnull align 8 dereferenceable(9) %this) unnamed_addr #1 comdat align 2 {
entry:
  %this.addr = alloca ptr, align 8
  store ptr %this, ptr %this.addr, align 8
  %this1 = load ptr, ptr %this.addr, align 8
  call void @_ZN7doctest13IContextScopeD2Ev(ptr noundef nonnull align 8 dereferenceable(8) %this1) #5
  ret void
}

; Function Attrs: mustprogress nounwind uwtable
define internal void @"_ZN7doctest6detail12ContextScopeIZN5utilsL19DOCTEST_ANON_FUNC_2EvE3$_0ED2Ev"(ptr noundef nonnull align 8 dereferenceable(10) %this) unnamed_addr #1 align 2 personality ptr @__gxx_personality_v0 {
entry:
  %this.addr = alloca ptr, align 8
  store ptr %this, ptr %this.addr, align 8
  %this1 = load ptr, ptr %this.addr, align 8
  store ptr getelementptr inbounds ({ [5 x ptr] }, ptr @"_ZTVN7doctest6detail12ContextScopeIZN5utilsL19DOCTEST_ANON_FUNC_2EvE3$_0EE", i32 0, i32 0, i32 2), ptr %this1, align 8
  %need_to_destroy = getelementptr inbounds %"struct.doctest::detail::ContextScopeBase", ptr %this1, i32 0, i32 1
  %0 = load i8, ptr %need_to_destroy, align 8
  %tobool = trunc i8 %0 to i1
  br i1 %tobool, label %if.then, label %if.end

if.then:                                          ; preds = %entry
  invoke void @_ZN7doctest6detail16ContextScopeBase7destroyEv(ptr noundef nonnull align 8 dereferenceable(9) %this1)
          to label %invoke.cont unwind label %terminate.lpad

invoke.cont:                                      ; preds = %if.then
  br label %if.end

if.end:                                           ; preds = %invoke.cont, %entry
  call void @_ZN7doctest6detail16ContextScopeBaseD2Ev(ptr noundef nonnull align 8 dereferenceable(9) %this1) #5
  ret void

terminate.lpad:                                   ; preds = %if.then
  %1 = landingpad { ptr, i32 }
          catch ptr null
  %2 = extractvalue { ptr, i32 } %1, 0
  call void @__clang_call_terminate(ptr %2) #20
  unreachable
}

; Function Attrs: mustprogress nounwind uwtable
define internal void @"_ZN7doctest6detail12ContextScopeIZN5utilsL19DOCTEST_ANON_FUNC_2EvE3$_0ED0Ev"(ptr noundef nonnull align 8 dereferenceable(10) %this) unnamed_addr #1 align 2 {
entry:
  %this.addr = alloca ptr, align 8
  store ptr %this, ptr %this.addr, align 8
  %this1 = load ptr, ptr %this.addr, align 8
  call void @"_ZN7doctest6detail12ContextScopeIZN5utilsL19DOCTEST_ANON_FUNC_2EvE3$_0ED2Ev"(ptr noundef nonnull align 8 dereferenceable(10) %this1) #5
  call void @_ZdlPv(ptr noundef %this1) #21
  ret void
}